target datalayout = "e-m:e-p270:32:32-p271:32:32-p272:64:64-i64:64-i128:128-f80:128-n8:16:32:64-S128"
target triple = "x86_64-pc-linux-gnu"

@.str.2607 = private unnamed_addr constant [33 x i8] c"Common Image Generator Interface\00", align 1
@.str.2608 = private unnamed_addr constant [5 x i8] c"CIGI\00", align 1
@.str.2609 = private unnamed_addr constant [5 x i8] c"cigi\00", align 1
@proto_cigi = internal global i32 0, align 4
@.str.2610 = private unnamed_addr constant [8 x i8] c"version\00", align 1
@.str.2611 = private unnamed_addr constant [13 x i8] c"CIGI version\00", align 1
@.str.2612 = private unnamed_addr constant [50 x i8] c"The version of CIGI with which to dissect packets\00", align 1
@global_cigi_version = internal global i32 0, align 4
@.str.2613 = private unnamed_addr constant [11 x i8] c"byte_order\00", align 1
@.str.2614 = private unnamed_addr constant [11 x i8] c"Byte Order\00", align 1
@.str.2615 = private unnamed_addr constant [58 x i8] c"The byte order with which to dissect CIGI packets (CIGI3)\00", align 1
@global_cigi_byte_order = internal global i32 -1, align 4
@.str.2616 = private unnamed_addr constant [5 x i8] c"host\00", align 1
@.str.2617 = private unnamed_addr constant [8 x i8] c"Host IP\00", align 1
@.str.2618 = private unnamed_addr constant [37 x i8] c"IPv4 address or hostname of the host\00", align 1
@global_host_ip = internal global ptr null, align 8
@.str.2619 = private unnamed_addr constant [3 x i8] c"ig\00", align 1
@.str.2620 = private unnamed_addr constant [19 x i8] c"Image Generator IP\00", align 1
@.str.2621 = private unnamed_addr constant [48 x i8] c"IPv4 address or hostname of the image generator\00", align 1
@global_ig_ip = internal global ptr null, align 8
@cigi_handle = internal global ptr null, align 8
@.str.2622 = private unnamed_addr constant [16 x i8] c"cigi3.packet_id\00", align 1
@.str.2623 = private unnamed_addr constant [16 x i8] c"CIGI3 Packet ID\00", align 1
@cigi3_packet_id_table = internal global ptr null, align 8
@.str.2624 = private unnamed_addr constant [16 x i8] c"cigi4.packet_id\00", align 1
@.str.2625 = private unnamed_addr constant [16 x i8] c"CIGI4 Packet ID\00", align 1
@cigi4_packet_id_table = internal global ptr null, align 8

; Function Attrs: null_pointer_is_valid sspstrong uwtable
define hidden void @proto_register_cigi() #0 {
  %1 = alloca ptr, align 8
  %2 = alloca ptr, align 8
  call void @llvm.lifetime.start.p0(i64 8, ptr %1) #5
  call void @llvm.lifetime.start.p0(i64 8, ptr %2) #5
  %3 = call i32 @proto_register_protocol(ptr noundef @.str.2607, ptr noundef @.str.2608, ptr noundef @.str.2609)
  store i32 %3, ptr @proto_cigi, align 4
  %4 = load i32, ptr @proto_cigi, align 4
  call void @proto_register_field_array(i32 noundef %4, ptr noundef @proto_register_cigi.hf, i32 noundef 1303)
  call void @proto_register_subtree_array(ptr noundef @proto_register_cigi.ett, i32 noundef 18)
  %5 = load i32, ptr @proto_cigi, align 4
  %6 = call ptr @expert_register_protocol(i32 noundef %5)
  store ptr %6, ptr %2, align 8
  %7 = load ptr, ptr %2, align 8
  call void @expert_register_field_array(ptr noundef %7, ptr noundef @proto_register_cigi.ei, i32 noundef 1)
  %8 = load i32, ptr @proto_cigi, align 4
  %9 = call ptr @prefs_register_protocol(i32 noundef %8, ptr noundef @proto_reg_handoff_cigi)
  store ptr %9, ptr %1, align 8
  %10 = load ptr, ptr %1, align 8
  call void @prefs_register_enum_preference(ptr noundef %10, ptr noundef @.str.2610, ptr noundef @.str.2611, ptr noundef @.str.2612, ptr noundef @global_cigi_version, ptr noundef @proto_register_cigi.cigi_versions, i1 noundef zeroext false)
  %11 = load ptr, ptr %1, align 8
  call void @prefs_register_enum_preference(ptr noundef %11, ptr noundef @.str.2613, ptr noundef @.str.2614, ptr noundef @.str.2615, ptr noundef @global_cigi_byte_order, ptr noundef @proto_register_cigi.cigi_byte_orders, i1 noundef zeroext false)
  %12 = load ptr, ptr %1, align 8
  call void @prefs_register_string_preference(ptr noundef %12, ptr noundef @.str.2616, ptr noundef @.str.2617, ptr noundef @.str.2618, ptr noundef @global_host_ip)
  %13 = load ptr, ptr %1, align 8
  call void @prefs_register_string_preference(ptr noundef %13, ptr noundef @.str.2619, ptr noundef @.str.2620, ptr noundef @.str.2621, ptr noundef @global_ig_ip)
  %14 = load i32, ptr @proto_cigi, align 4
  %15 = call ptr @register_dissector(ptr noundef @.str.2609, ptr noundef @dissect_cigi, i32 noundef %14)
  store ptr %15, ptr @cigi_handle, align 8
  %16 = load i32, ptr @proto_cigi, align 4
  %17 = call ptr @register_dissector_table(ptr noundef @.str.2622, ptr noundef @.str.2623, i32 noundef %16, i32 noundef 4, i32 noundef 1)
  store ptr %17, ptr @cigi3_packet_id_table, align 8
  %18 = load i32, ptr @proto_cigi, align 4
  %19 = call ptr @register_dissector_table(ptr noundef @.str.2624, ptr noundef @.str.2625, i32 noundef %18, i32 noundef 5, i32 noundef 2)
  store ptr %19, ptr @cigi4_packet_id_table, align 8
  call void @llvm.lifetime.end.p0(i64 8, ptr %2) #5
  call void @llvm.lifetime.end.p0(i64 8, ptr %1) #5
  ret void
}