; Function Attrs: null_pointer_is_valid sspstrong uwtable
define hidden void @proto_register_cigi() local_unnamed_addr #0 {
  %1 = tail call i32 @proto_register_protocol(ptr noundef nonnull @.str.2607, ptr noundef nonnull @.str.2608, ptr noundef nonnull @.str.2609)
  store i32 %1, ptr @proto_cigi, align 4
  tail call void @proto_register_field_array(i32 noundef %1, ptr noundef nonnull @proto_register_cigi.hf, i32 noundef 1303)
  tail call void @proto_register_subtree_array(ptr noundef nonnull @proto_register_cigi.ett, i32 noundef 18)
  %2 = load i32, ptr @proto_cigi, align 4
  %3 = tail call ptr @expert_register_protocol(i32 noundef %2)
  tail call void @expert_register_field_array(ptr noundef %3, ptr noundef nonnull @proto_register_cigi.ei, i32 noundef 1)
  %4 = load i32, ptr @proto_cigi, align 4
  %5 = tail call ptr @prefs_register_protocol(i32 noundef %4, ptr noundef nonnull @proto_reg_handoff_cigi)
  tail call void @prefs_register_enum_preference(ptr noundef %5, ptr noundef nonnull @.str.2610, ptr noundef nonnull @.str.2611, ptr noundef nonnull @.str.2612, ptr noundef nonnull @global_cigi_version, ptr noundef nonnull @proto_register_cigi.cigi_versions, i1 noundef zeroext false)
  tail call void @prefs_register_enum_preference(ptr noundef %5, ptr noundef nonnull @.str.2613, ptr noundef nonnull @.str.2614, ptr noundef nonnull @.str.2615, ptr noundef nonnull @global_cigi_byte_order, ptr noundef nonnull @proto_register_cigi.cigi_byte_orders, i1 noundef zeroext false)
  tail call void @prefs_register_string_preference(ptr noundef %5, ptr noundef nonnull @.str.2616, ptr noundef nonnull @.str.2617, ptr noundef nonnull @.str.2618, ptr noundef nonnull @global_host_ip)
  tail call void @prefs_register_string_preference(ptr noundef %5, ptr noundef nonnull @.str.2619, ptr noundef nonnull @.str.2620, ptr noundef nonnull @.str.2621, ptr noundef nonnull @global_ig_ip)
  %6 = load i32, ptr @proto_cigi, align 4
  %7 = tail call ptr @register_dissector(ptr noundef nonnull @.str.2609, ptr noundef nonnull @dissect_cigi, i32 noundef %6)
  store ptr %7, ptr @cigi_handle, align 8
  %8 = load i32, ptr @proto_cigi, align 4
  %9 = tail call ptr @register_dissector_table(ptr noundef nonnull @.str.2622, ptr noundef nonnull @.str.2623, i32 noundef %8, i32 noundef 4, i32 noundef 1)
  store ptr %9, ptr @cigi3_packet_id_table, align 8
  %10 = load i32, ptr @proto_cigi, align 4
  %11 = tail call ptr @register_dissector_table(ptr noundef nonnull @.str.2624, ptr noundef nonnull @.str.2625, i32 noundef %10, i32 noundef 5, i32 noundef 2)
  store ptr %11, ptr @cigi4_packet_id_table, align 8
  ret void
}